target datalayout = "e-m:e-p270:32:32-p271:32:32-p272:64:64-i64:64-i128:128-f80:128-n8:16:32:64-S128"
target triple = "x86_64-pc-linux-gnu"

%struct.OptContext = type { ptr, ptr, %struct.TCGTempSet, %struct.RBRootLeftCached, %struct.anon, i32 }
%struct.TCGTempSet = type { [8 x i64] }
%struct.RBRootLeftCached = type { %struct.RBRoot, ptr }
%struct.RBRoot = type { ptr }
%struct.anon = type { ptr, ptr }
%struct.TCGTemp = type { i64, i64, ptr, i64, ptr, i64, ptr }
%struct.QTailQLink = type { ptr, ptr }
%struct.TCGOp = type { i32, i32, %union.anon.2, [2 x i32], [0 x i64] }
%union.anon.2 = type { %struct.QTailQLink }
%struct.TempOptInfo = type { i8, ptr, ptr, %struct.anon.3, i64, i64, i64 }
%struct.anon.3 = type { ptr, ptr }

@.str = private unnamed_addr constant [23 x i8] c"../qemu/tcg/optimize.c\00", align 1
@__func__.fold_setcond_zmask = private unnamed_addr constant [19 x i8] c"fold_setcond_zmask\00", align 1

; Function Attrs: inlinehint nounwind sspstrong uwtable
define internal zeroext i1 @ti_is_const(ptr noundef %0) #3 {
  %2 = alloca ptr, align 8
  store ptr %0, ptr %2, align 8
  %3 = load ptr, ptr %2, align 8
  %4 = getelementptr inbounds nuw %struct.TempOptInfo, ptr %3, i32 0, i32 0
  %5 = load i8, ptr %4, align 8, !range !7, !noundef !8
  %6 = trunc i8 %5 to i1
  ret i1 %6
}

; Function Attrs: inlinehint nounwind sspstrong uwtable
define internal ptr @ts_info(ptr noundef %0) #3 {
  %2 = alloca ptr, align 8
  store ptr %0, ptr %2, align 8
  %3 = load ptr, ptr %2, align 8
  %4 = getelementptr inbounds nuw %struct.TCGTemp, ptr %3, i32 0, i32 6
  %5 = load ptr, ptr %4, align 8
  ret ptr %5
}

; Function Attrs: inlinehint nounwind sspstrong uwtable
define internal zeroext i1 @ts_is_const(ptr noundef %0) #3 {
  %2 = alloca ptr, align 8
  store ptr %0, ptr %2, align 8
  %3 = load ptr, ptr %2, align 8
  %4 = call ptr @ts_info(ptr noundef %3)
  %5 = call zeroext i1 @ti_is_const(ptr noundef %4)
  ret i1 %5
}

; Function Attrs: inlinehint nounwind sspstrong uwtable
define internal ptr @arg_temp(i64 noundef %0) #3 {
  %2 = alloca i64, align 8
  store i64 %0, ptr %2, align 8
  %3 = load i64, ptr %2, align 8
  %4 = inttoptr i64 %3 to ptr
  ret ptr %4
}

; Function Attrs: nounwind sspstrong uwtable
define internal zeroext i1 @tcg_opt_gen_movi(ptr noundef %0, ptr noundef %1, i64 noundef %2, i64 noundef %3) #0 {
  %5 = alloca ptr, align 8
  %6 = alloca ptr, align 8
  %7 = alloca i64, align 8
  %8 = alloca i64, align 8
  store ptr %0, ptr %5, align 8
  store ptr %1, ptr %6, align 8
  store i64 %2, ptr %7, align 8
  store i64 %3, ptr %8, align 8
  %9 = load ptr, ptr %5, align 8
  %10 = load ptr, ptr %6, align 8
  %11 = load i64, ptr %7, align 8
  %12 = load ptr, ptr %5, align 8
  %13 = load i64, ptr %8, align 8
  %14 = call i64 @arg_new_constant(ptr noundef %12, i64 noundef %13)
  %15 = call zeroext i1 @tcg_opt_gen_mov(ptr noundef %9, ptr noundef %10, i64 noundef %11, i64 noundef %14)
  ret i1 %15
}

; Function Attrs: inlinehint nounwind sspstrong uwtable
define internal ptr @arg_info(i64 noundef %0) #3 {
  %2 = alloca i64, align 8
  store i64 %0, ptr %2, align 8
  %3 = load i64, ptr %2, align 8
  %4 = call ptr @arg_temp(i64 noundef %3)
  %5 = call ptr @ts_info(ptr noundef %4)
  ret ptr %5
}

; Function Attrs: inlinehint nounwind sspstrong uwtable
define internal zeroext i1 @arg_is_const(i64 noundef %0) #3 {
  %2 = alloca i64, align 8
  store i64 %0, ptr %2, align 8
  %3 = load i64, ptr %2, align 8
  %4 = call ptr @arg_temp(i64 noundef %3)
  %5 = call zeroext i1 @ts_is_const(ptr noundef %4)
  ret i1 %5
}

; Function Attrs: nounwind sspstrong uwtable
define internal i32 @fold_setcond_zmask(ptr noundef %0, ptr noundef %1, i1 noundef zeroext %2) #0 {
  %4 = alloca i32, align 4
  %5 = alloca ptr, align 8
  %6 = alloca ptr, align 8
  %7 = alloca i8, align 1
  %8 = alloca i64, align 8
  %9 = alloca i64, align 8
  %10 = alloca i32, align 4
  %11 = alloca i32, align 4
  %12 = alloca i8, align 1
  %13 = alloca i8, align 1
  %14 = alloca i8, align 1
  %15 = alloca i32, align 4
  %16 = alloca i32, align 4
  %17 = alloca i32, align 4
  store ptr %0, ptr %5, align 8
  store ptr %1, ptr %6, align 8
  %18 = zext i1 %2 to i8
  store i8 %18, ptr %7, align 1
  call void @llvm.lifetime.start.p0(i64 8, ptr %8) #13
  store i64 0, ptr %8, align 8, !annotation !4
  call void @llvm.lifetime.start.p0(i64 8, ptr %9) #13
  store i64 0, ptr %9, align 8, !annotation !4
  call void @llvm.lifetime.start.p0(i64 4, ptr %10) #13
  store i32 0, ptr %10, align 4, !annotation !4
  %19 = load ptr, ptr %6, align 8
  %20 = getelementptr inbounds nuw %struct.TCGOp, ptr %19, i32 0, i32 4
  %21 = getelementptr inbounds [0 x i64], ptr %20, i64 0, i64 2
  %22 = load i64, ptr %21, align 8
  %23 = call zeroext i1 @arg_is_const(i64 noundef %22)
  br i1 %23, label %25, label %24

24:                                               ; preds = %3
  store i32 0, ptr %4, align 4
  store i32 1, ptr %11, align 4
  br label %184

25:                                               ; preds = %3
  %26 = load ptr, ptr %6, align 8
  %27 = getelementptr inbounds nuw %struct.TCGOp, ptr %26, i32 0, i32 4
  %28 = getelementptr inbounds [0 x i64], ptr %27, i64 0, i64 1
  %29 = load i64, ptr %28, align 8
  %30 = call ptr @arg_info(i64 noundef %29)
  %31 = getelementptr inbounds nuw %struct.TempOptInfo, ptr %30, i32 0, i32 5
  %32 = load i64, ptr %31, align 8
  store i64 %32, ptr %8, align 8
  %33 = load ptr, ptr %6, align 8
  %34 = getelementptr inbounds nuw %struct.TCGOp, ptr %33, i32 0, i32 4
  %35 = getelementptr inbounds [0 x i64], ptr %34, i64 0, i64 2
  %36 = load i64, ptr %35, align 8
  %37 = call ptr @arg_info(i64 noundef %36)
  %38 = getelementptr inbounds nuw %struct.TempOptInfo, ptr %37, i32 0, i32 4
  %39 = load i64, ptr %38, align 8
  store i64 %39, ptr %9, align 8
  %40 = load ptr, ptr %6, align 8
  %41 = getelementptr inbounds nuw %struct.TCGOp, ptr %40, i32 0, i32 4
  %42 = getelementptr inbounds [0 x i64], ptr %41, i64 0, i64 3
  %43 = load i64, ptr %42, align 8
  %44 = trunc i64 %43 to i32
  store i32 %44, ptr %10, align 4
  %45 = load ptr, ptr %5, align 8
  %46 = getelementptr inbounds nuw %struct.OptContext, ptr %45, i32 0, i32 5
  %47 = load i32, ptr %46, align 8
  %48 = icmp eq i32 %47, 0
  br i1 %48, label %49, label %56

49:                                               ; preds = %25
  %50 = load i64, ptr %8, align 8
  %51 = trunc i64 %50 to i32
  %52 = zext i32 %51 to i64
  store i64 %52, ptr %8, align 8
  %53 = load i64, ptr %9, align 8
  %54 = trunc i64 %53 to i32
  %55 = zext i32 %54 to i64
  store i64 %55, ptr %9, align 8
  br label %56

56:                                               ; preds = %49, %25
  %57 = load i64, ptr %8, align 8
  %58 = load i64, ptr %9, align 8
  %59 = icmp ult i64 %57, %58
  br i1 %59, label %60, label %91

60:                                               ; preds = %56
  call void @llvm.lifetime.start.p0(i64 1, ptr %12) #13
  store i8 0, ptr %12, align 1
  %61 = load i32, ptr %10, align 4
  switch i32 %61, label %86 [
    i32 9, label %62
    i32 15, label %62
    i32 10, label %62
    i32 14, label %63
    i32 11, label %63
    i32 8, label %63
  ]

62:                                               ; preds = %60, %60, %60
  store i8 1, ptr %12, align 1
  br label %63

63:                                               ; preds = %60, %60, %60, %62
  %64 = load ptr, ptr %5, align 8
  %65 = load ptr, ptr %6, align 8
  %66 = load ptr, ptr %6, align 8
  %67 = getelementptr inbounds nuw %struct.TCGOp, ptr %66, i32 0, i32 4
  %68 = getelementptr inbounds [0 x i64], ptr %67, i64 0, i64 0
  %69 = load i64, ptr %68, align 8
  %70 = load i8, ptr %7, align 1, !range !7, !noundef !8
  %71 = trunc i8 %70 to i1
  br i1 %71, label %72, label %77

72:                                               ; preds = %63
  %73 = load i8, ptr %12, align 1, !range !7, !noundef !8
  %74 = trunc i8 %73 to i1
  %75 = zext i1 %74 to i32
  %76 = sub i32 0, %75
  br label %81

77:                                               ; preds = %63
  %78 = load i8, ptr %12, align 1, !range !7, !noundef !8
  %79 = trunc i8 %78 to i1
  %80 = zext i1 %79 to i32
  br label %81

81:                                               ; preds = %77, %72
  %82 = phi i32 [ %76, %72 ], [ %80, %77 ]
  %83 = sext i32 %82 to i64
  %84 = call zeroext i1 @tcg_opt_gen_movi(ptr noundef %64, ptr noundef %65, i64 noundef %69, i64 noundef %83)
  %85 = zext i1 %84 to i32
  store i32 %85, ptr %4, align 4
  store i32 1, ptr %11, align 4
  br label %88

86:                                               ; preds = %60
  br label %87

87:                                               ; preds = %86
  store i32 0, ptr %11, align 4
  br label %88

88:                                               ; preds = %87, %81
  call void @llvm.lifetime.end.p0(i64 1, ptr %12) #13
  %89 = load i32, ptr %11, align 4
  switch i32 %89, label %184 [
    i32 0, label %90
  ]

90:                                               ; preds = %88
  br label %91

91:                                               ; preds = %90, %56
  %92 = load i64, ptr %8, align 8
  %93 = icmp ule i64 %92, 1
  br i1 %93, label %94, label %183

94:                                               ; preds = %91
  call void @llvm.lifetime.start.p0(i64 1, ptr %13) #13
  store i8 0, ptr %13, align 1
  call void @llvm.lifetime.start.p0(i64 1, ptr %14) #13
  store i8 0, ptr %14, align 1
  %95 = load i32, ptr %10, align 4
  switch i32 %95, label %106 [
    i32 8, label %96
    i32 9, label %97
    i32 10, label %101
    i32 12, label %101
    i32 11, label %102
    i32 13, label %102
  ]

96:                                               ; preds = %94
  store i8 1, ptr %14, align 1
  br label %97

97:                                               ; preds = %94, %96
  %98 = load i64, ptr %9, align 8
  %99 = icmp eq i64 %98, 0
  %100 = zext i1 %99 to i8
  store i8 %100, ptr %13, align 1
  br label %107

101:                                              ; preds = %94, %94
  store i8 1, ptr %14, align 1
  br label %102

102:                                              ; preds = %94, %94, %101
  %103 = load i64, ptr %9, align 8
  %104 = icmp eq i64 %103, 1
  %105 = zext i1 %104 to i8
  store i8 %105, ptr %13, align 1
  br label %107

106:                                              ; preds = %94
  br label %107

107:                                              ; preds = %106, %102, %97
  %108 = load i8, ptr %13, align 1, !range !7, !noundef !8
  %109 = trunc i8 %108 to i1
  br i1 %109, label %110, label %179

110:                                              ; preds = %107
  call void @llvm.lifetime.start.p0(i64 4, ptr %15) #13
  store i32 0, ptr %15, align 4, !annotation !4
  call void @llvm.lifetime.start.p0(i64 4, ptr %16) #13
  store i32 0, ptr %16, align 4, !annotation !4
  call void @llvm.lifetime.start.p0(i64 4, ptr %17) #13
  store i32 0, ptr %17, align 4, !annotation !4
  %111 = load i8, ptr %14, align 1, !range !7, !noundef !8
  %112 = trunc i8 %111 to i1
  br i1 %112, label %129, label %113

113:                                              ; preds = %110
  %114 = load i8, ptr %7, align 1, !range !7, !noundef !8
  %115 = trunc i8 %114 to i1
  br i1 %115, label %129, label %116

116:                                              ; preds = %113
  %117 = load ptr, ptr %5, align 8
  %118 = load ptr, ptr %6, align 8
  %119 = load ptr, ptr %6, align 8
  %120 = getelementptr inbounds nuw %struct.TCGOp, ptr %119, i32 0, i32 4
  %121 = getelementptr inbounds [0 x i64], ptr %120, i64 0, i64 0
  %122 = load i64, ptr %121, align 8
  %123 = load ptr, ptr %6, align 8
  %124 = getelementptr inbounds nuw %struct.TCGOp, ptr %123, i32 0, i32 4
  %125 = getelementptr inbounds [0 x i64], ptr %124, i64 0, i64 1
  %126 = load i64, ptr %125, align 8
  %127 = call zeroext i1 @tcg_opt_gen_mov(ptr noundef %117, ptr noundef %118, i64 noundef %122, i64 noundef %126)
  %128 = zext i1 %127 to i32
  store i32 %128, ptr %4, align 4
  store i32 1, ptr %11, align 4
  br label %178

129:                                              ; preds = %113, %110
  %130 = load ptr, ptr %5, align 8
  %131 = getelementptr inbounds nuw %struct.OptContext, ptr %130, i32 0, i32 5
  %132 = load i32, ptr %131, align 8
  switch i32 %132, label %135 [
    i32 0, label %133
    i32 1, label %134
  ]

133:                                              ; preds = %129
  store i32 17, ptr %15, align 4
  store i32 54, ptr %17, align 4
  store i32 28, ptr %16, align 4
  br label %139

134:                                              ; preds = %129
  store i32 78, ptr %15, align 4
  store i32 114, ptr %17, align 4
  store i32 89, ptr %16, align 4
  br label %139

135:                                              ; preds = %129
  br label %136

136:                                              ; preds = %135
  call void @g_assertion_message_expr(ptr noundef null, ptr noundef @.str, i32 noundef 2321, ptr noundef @__func__.fold_setcond_zmask, ptr noundef null) #14
  unreachable

137:                                              ; No predecessors!
  br label %138

138:                                              ; preds = %137
  br label %139

139:                                              ; preds = %138, %134, %133
  %140 = load i8, ptr %14, align 1, !range !7, !noundef !8
  %141 = trunc i8 %140 to i1
  br i1 %141, label %149, label %142

142:                                              ; preds = %139
  %143 = load i32, ptr %17, align 4
  %144 = load ptr, ptr %6, align 8
  %145 = load i32, ptr %144, align 8
  %146 = and i32 %143, 255
  %147 = and i32 %145, -256
  %148 = or i32 %147, %146
  store i32 %148, ptr %144, align 8
  br label %177

149:                                              ; preds = %139
  %150 = load i8, ptr %7, align 1, !range !7, !noundef !8
  %151 = trunc i8 %150 to i1
  br i1 %151, label %152, label %164

152:                                              ; preds = %149
  %153 = load i32, ptr %15, align 4
  %154 = load ptr, ptr %6, align 8
  %155 = load i32, ptr %154, align 8
  %156 = and i32 %153, 255
  %157 = and i32 %155, -256
  %158 = or i32 %157, %156
  store i32 %158, ptr %154, align 8
  %159 = load ptr, ptr %5, align 8
  %160 = call i64 @arg_new_constant(ptr noundef %159, i64 noundef -1)
  %161 = load ptr, ptr %6, align 8
  %162 = getelementptr inbounds nuw %struct.TCGOp, ptr %161, i32 0, i32 4
  %163 = getelementptr inbounds [0 x i64], ptr %162, i64 0, i64 2
  store i64 %160, ptr %163, align 8
  br label %176

164:                                              ; preds = %149
  %165 = load i32, ptr %16, align 4
  %166 = load ptr, ptr %6, align 8
  %167 = load i32, ptr %166, align 8
  %168 = and i32 %165, 255
  %169 = and i32 %167, -256
  %170 = or i32 %169, %168
  store i32 %170, ptr %166, align 8
  %171 = load ptr, ptr %5, align 8
  %172 = call i64 @arg_new_constant(ptr noundef %171, i64 noundef 1)
  %173 = load ptr, ptr %6, align 8
  %174 = getelementptr inbounds nuw %struct.TCGOp, ptr %173, i32 0, i32 4
  %175 = getelementptr inbounds [0 x i64], ptr %174, i64 0, i64 2
  store i64 %172, ptr %175, align 8
  br label %176

176:                                              ; preds = %164, %152
  br label %177

177:                                              ; preds = %176, %142
  store i32 -1, ptr %4, align 4
  store i32 1, ptr %11, align 4
  br label %178

178:                                              ; preds = %177, %116
  call void @llvm.lifetime.end.p0(i64 4, ptr %17) #13
  call void @llvm.lifetime.end.p0(i64 4, ptr %16) #13
  call void @llvm.lifetime.end.p0(i64 4, ptr %15) #13
  br label %180

179:                                              ; preds = %107
  store i32 0, ptr %11, align 4
  br label %180

180:                                              ; preds = %179, %178
  call void @llvm.lifetime.end.p0(i64 1, ptr %14) #13
  call void @llvm.lifetime.end.p0(i64 1, ptr %13) #13
  %181 = load i32, ptr %11, align 4
  switch i32 %181, label %184 [
    i32 0, label %182
  ]

182:                                              ; preds = %180
  br label %183

183:                                              ; preds = %182, %91
  store i32 0, ptr %4, align 4
  store i32 1, ptr %11, align 4
  br label %184

184:                                              ; preds = %183, %180, %88, %24
  call void @llvm.lifetime.end.p0(i64 4, ptr %10) #13
  call void @llvm.lifetime.end.p0(i64 8, ptr %9) #13
  call void @llvm.lifetime.end.p0(i64 8, ptr %8) #13
  %185 = load i32, ptr %4, align 4
  ret i32 %185
}