; Function Attrs: nounwind sspstrong uwtable
define internal fastcc range(i32 -1, 2) i32 @fold_setcond_zmask(ptr noundef nonnull %0, ptr noundef nonnull %1, i1 noundef zeroext %2) unnamed_addr #0 {
  %4 = getelementptr inbounds nuw i8, ptr %1, i64 32
  %5 = getelementptr inbounds nuw i8, ptr %1, i64 48
  %6 = load i64, ptr %5, align 8
  %7 = inttoptr i64 %6 to ptr
  %8 = getelementptr i8, ptr %7, i64 48
  %.val.i = load ptr, ptr %8, align 8
  %.val.val.i = load i8, ptr %.val.i, align 8, !range !15, !noundef !16
  %9 = trunc nuw i8 %.val.val.i to i1
  br i1 %9, label %10, label %.thread

10:                                               ; preds = %3
  %11 = getelementptr inbounds nuw i8, ptr %1, i64 40
  %12 = load i64, ptr %11, align 8
  %13 = inttoptr i64 %12 to ptr
  %14 = getelementptr i8, ptr %13, i64 48
  %.val.i56 = load ptr, ptr %14, align 8
  %15 = getelementptr inbounds nuw i8, ptr %.val.i56, i64 48
  %16 = load i64, ptr %15, align 8
  %17 = getelementptr inbounds nuw i8, ptr %.val.i, i64 40
  %18 = load i64, ptr %17, align 8
  %19 = getelementptr inbounds nuw i8, ptr %1, i64 56
  %20 = load i64, ptr %19, align 8
  %21 = trunc i64 %20 to i32
  %22 = getelementptr inbounds nuw i8, ptr %0, i64 112
  %23 = load i32, ptr %22, align 8
  %24 = icmp eq i32 %23, 0
  %25 = and i64 %16, 4294967295
  %26 = and i64 %18, 4294967295
  %.052 = select i1 %24, i64 %25, i64 %16
  %.051 = select i1 %24, i64 %26, i64 %18
  %27 = icmp ult i64 %.052, %.051
  br i1 %27, label %28, label %36

28:                                               ; preds = %10
  %switch.tableidx = add i32 %21, -8
  %29 = icmp ult i32 %switch.tableidx, 8
  br i1 %29, label %switch.hole_check, label %36

switch.hole_check:                                ; preds = %28
  %switch.maskindex = trunc nuw i32 %switch.tableidx to i8
  %switch.shifted = lshr i8 -49, %switch.maskindex
  %switch.lobit = trunc i8 %switch.shifted to i1
  br i1 %switch.lobit, label %switch.lookup, label %36

switch.lookup:                                    ; preds = %switch.hole_check
  %30 = zext nneg i32 %switch.tableidx to i64
  %switch.gep = getelementptr inbounds nuw [8 x i32], ptr @switch.table.fold_setcond_zmask, i64 0, i64 %30
  %switch.load = load i32, ptr %switch.gep, align 4
  %31 = load i64, ptr %4, align 8
  %32 = sub nsw i32 0, %switch.load
  %33 = select i1 %2, i32 %32, i32 %switch.load
  %34 = sext i32 %33 to i64
  %35 = tail call fastcc i64 @arg_new_constant(ptr noundef nonnull %0, i64 noundef %34)
  tail call fastcc void @tcg_opt_gen_mov(ptr noundef nonnull %0, ptr noundef nonnull %1, i64 noundef %31, i64 noundef %35)
  br label %.thread

36:                                               ; preds = %switch.hole_check, %28, %10
  %37 = icmp ult i64 %.052, 2
  br i1 %37, label %38, label %.thread

38:                                               ; preds = %36
  switch i32 %21, label %.thread [
    i32 8, label %39
    i32 9, label %43
    i32 10, label %40
    i32 12, label %40
    i32 11, label %41
    i32 13, label %41
  ]

39:                                               ; preds = %38
  br label %43

40:                                               ; preds = %38, %38
  br label %41

41:                                               ; preds = %40, %38, %38
  %.1 = phi i1 [ false, %38 ], [ false, %38 ], [ true, %40 ]
  %42 = icmp eq i64 %.051, 1
  br i1 %42, label %45, label %.thread

43:                                               ; preds = %38, %39
  %.045 = phi i1 [ false, %38 ], [ true, %39 ]
  %44 = icmp eq i64 %.051, 0
  br i1 %44, label %45, label %.thread

45:                                               ; preds = %41, %43
  %.262 = phi i1 [ %.1, %41 ], [ %.045, %43 ]
  %brmerge = or i1 %2, %.262
  br i1 %brmerge, label %48, label %46

46:                                               ; preds = %45
  %47 = load i64, ptr %4, align 8
  tail call fastcc void @tcg_opt_gen_mov(ptr noundef %0, ptr noundef nonnull %1, i64 noundef %47, i64 noundef %12)
  br label %.thread

48:                                               ; preds = %45
  switch i32 %23, label %50 [
    i32 0, label %51
    i32 1, label %49
  ]

49:                                               ; preds = %48
  br label %51

50:                                               ; preds = %48
  tail call void @g_assertion_message_expr(ptr noundef null, ptr noundef nonnull @.str, i32 noundef 2321, ptr noundef nonnull @__func__.fold_setcond_zmask, ptr noundef null) #10
  unreachable

51:                                               ; preds = %48, %49
  %.044 = phi i32 [ 78, %49 ], [ 17, %48 ]
  %.043 = phi i32 [ 89, %49 ], [ 28, %48 ]
  %.0 = phi i32 [ 114, %49 ], [ 54, %48 ]
  %52 = load i32, ptr %1, align 8
  %53 = and i32 %52, -256
  br i1 %.262, label %56, label %54

54:                                               ; preds = %51
  %55 = or disjoint i32 %53, %.0
  store i32 %55, ptr %1, align 8
  br label %.thread

56:                                               ; preds = %51
  br i1 %2, label %57, label %60

57:                                               ; preds = %56
  %58 = or disjoint i32 %53, %.044
  store i32 %58, ptr %1, align 8
  %59 = tail call fastcc i64 @arg_new_constant(ptr noundef %0, i64 noundef -1)
  store i64 %59, ptr %5, align 8
  br label %.thread

60:                                               ; preds = %56
  %61 = or disjoint i32 %53, %.043
  store i32 %61, ptr %1, align 8
  %62 = tail call fastcc i64 @arg_new_constant(ptr noundef %0, i64 noundef 1)
  store i64 %62, ptr %5, align 8
  br label %.thread

.thread:                                          ; preds = %54, %60, %57, %46, %38, %36, %41, %43, %switch.lookup, %3
  %.053 = phi i32 [ 0, %3 ], [ 1, %switch.lookup ], [ 0, %43 ], [ 0, %41 ], [ 0, %36 ], [ 0, %38 ], [ -1, %54 ], [ -1, %60 ], [ -1, %57 ], [ 1, %46 ]
  ret i32 %.053
}